; Function Attrs: mustprogress nounwind uwtable
define void @_ZN5boost4urls12segments_ref5eraseENS0_13segments_base8iteratorES3_(ptr dead_on_unwind noalias nocapture writable writeonly sret(%"class.boost::urls::segments_base::iterator") align 8 %0, ptr nocapture noundef nonnull readonly align 8 dereferenceable(48) %1, ptr noundef nonnull byval(%"class.boost::urls::segments_base::iterator") align 8 %2, ptr noundef nonnull byval(%"class.boost::urls::segments_base::iterator") align 8 %3) local_unnamed_addr #3 align 2 personality ptr @__gxx_personality_v0 {
  %5 = alloca %"class.boost::core::basic_string_view", align 8
  %6 = alloca %"struct.boost::urls::detail::segments_iter_impl", align 8
  %7 = alloca %"struct.boost::urls::detail::segments_encoded_iter", align 8
  call void @llvm.lifetime.start.p0(i64 16, ptr nonnull %5) #13
  call void @llvm.memset.p0.i64(ptr noundef nonnull align 8 dereferenceable(16) %5, i8 0, i64 16, i1 false)
  call void @llvm.lifetime.start.p0(i64 104, ptr nonnull %6) #13
  %8 = getelementptr inbounds nuw i8, ptr %1, i64 40
  %9 = load ptr, ptr %8, align 8, !tbaa !3
  call void @llvm.lifetime.start.p0(i64 72, ptr nonnull %7) #13
  %10 = getelementptr inbounds nuw i8, ptr %7, i64 8
  call void @llvm.memset.p0.i64(ptr noundef nonnull align 8 dereferenceable(37) %10, i8 0, i64 37, i1 false), !alias.scope !54
  store ptr getelementptr inbounds inrange(-16, 40) (i8, ptr @_ZTVN5boost4urls6detail21segments_encoded_iterIPNS_4core17basic_string_viewIcEEEE, i64 16), ptr %7, align 8, !tbaa !16, !alias.scope !54
  %11 = getelementptr inbounds nuw i8, ptr %7, i64 48
  store ptr %5, ptr %11, align 8, !tbaa !57, !alias.scope !54
  %12 = getelementptr inbounds nuw i8, ptr %7, i64 56
  store ptr %5, ptr %12, align 8, !tbaa !59, !alias.scope !54
  %13 = getelementptr inbounds nuw i8, ptr %7, i64 64
  store ptr %5, ptr %13, align 8, !tbaa !60, !alias.scope !54
  invoke void @_ZN5boost4urls8url_base13edit_segmentsERKNS0_6detail18segments_iter_implES5_ONS2_17any_segments_iterEi(ptr dead_on_unwind nonnull writable sret(%"struct.boost::urls::detail::segments_iter_impl") align 8 %6, ptr noundef nonnull align 8 dereferenceable(216) %9, ptr noundef nonnull align 8 dereferenceable(104) %2, ptr noundef nonnull align 8 dereferenceable(104) %3, ptr noundef nonnull align 8 dereferenceable(45) %7, i32 noundef -1)
          to label %14 unwind label %15

14:                                               ; preds = %4
  call void @llvm.memcpy.p0.p0.i64(ptr noundef nonnull align 8 dereferenceable(104) %0, ptr noundef nonnull align 8 dereferenceable(104) %6, i64 104, i1 false)
  call void @llvm.lifetime.end.p0(i64 72, ptr nonnull %7) #13
  call void @llvm.lifetime.end.p0(i64 104, ptr nonnull %6) #13
  call void @llvm.lifetime.end.p0(i64 16, ptr nonnull %5) #13
  ret void

15:                                               ; preds = %4
  %16 = landingpad { ptr, i32 }
          catch ptr null
  %17 = extractvalue { ptr, i32 } %16, 0
  call void @__clang_call_terminate(ptr %17) #14
  unreachable
}